; Function Attrs: mustprogress nounwind uwtable
define noundef ptr @_ZNK8facebook5velox14VeloxException5State4whatEv(ptr noundef nonnull align 8 dereferenceable(320) %this) local_unnamed_addr #4 align 2 personality ptr @__gxx_personality_v0 {
entry:
  %once = getelementptr inbounds i8, ptr %this, i64 280
  %0 = load atomic i8, ptr %once acquire, align 8
  %1 = and i8 %0, 1
  %tobool.i.i.not = icmp eq i8 %1, 0
  br i1 %tobool.i.i.not, label %if.end.i, label %invoke.cont

if.end.i:                                         ; preds = %entry
  %mutex_.i = getelementptr inbounds i8, ptr %this, i64 284
  invoke void @_ZN5folly15SharedMutexImplILb0EvSt6atomicNS_24SharedMutexPolicyDefaultEE4lockEv(ptr noundef nonnull align 4 dereferenceable(4) %mutex_.i)
          to label %.noexc unwind label %lpad

.noexc:                                           ; preds = %if.end.i
  %2 = load atomic i8, ptr %once monotonic, align 8
  %3 = and i8 %2, 1
  %tobool.i.i.not.i = icmp eq i8 %3, 0
  br i1 %tobool.i.i.not.i, label %if.end.i2, label %cleanup.i

if.end.i2:                                        ; preds = %.noexc
  invoke void @_ZNK8facebook5velox14VeloxException5State8finalizeEv(ptr noundef nonnull align 8 dereferenceable(320) %this)
          to label %invoke.cont.i unwind label %lpad.i

invoke.cont.i:                                    ; preds = %if.end.i2
  store atomic i8 1, ptr %once release, align 8
  br label %cleanup.i

cleanup.i:                                        ; preds = %invoke.cont.i, %.noexc
  invoke void @_ZN5folly15SharedMutexImplILb0EvSt6atomicNS_24SharedMutexPolicyDefaultEE6unlockEv(ptr noundef nonnull align 4 dereferenceable(4) %mutex_.i)
          to label %invoke.cont unwind label %terminate.lpad.i.i

terminate.lpad.i.i:                               ; preds = %cleanup.i
  %4 = landingpad { ptr, i32 }
          catch ptr null
  %5 = extractvalue { ptr, i32 } %4, 0
  tail call void @__clang_call_terminate(ptr %5) #18
  unreachable

lpad.i:                                           ; preds = %if.end.i2
  %6 = landingpad { ptr, i32 }
          catch ptr null
  invoke void @_ZN5folly15SharedMutexImplILb0EvSt6atomicNS_24SharedMutexPolicyDefaultEE6unlockEv(ptr noundef nonnull align 4 dereferenceable(4) %mutex_.i)
          to label %lpad.body unwind label %terminate.lpad.i1.i

terminate.lpad.i1.i:                              ; preds = %lpad.i
  %7 = landingpad { ptr, i32 }
          catch ptr null
  %8 = extractvalue { ptr, i32 } %7, 0
  tail call void @__clang_call_terminate(ptr %8) #18
  unreachable

invoke.cont:                                      ; preds = %cleanup.i, %entry
  %elaborateMessage = getelementptr inbounds i8, ptr %this, i64 288
  %call = tail call noundef ptr @_ZNKSt7__cxx1112basic_stringIcSt11char_traitsIcESaIcEE5c_strEv(ptr noundef nonnull align 8 dereferenceable(32) %elaborateMessage) #16
  br label %return

lpad:                                             ; preds = %if.end.i
  %9 = landingpad { ptr, i32 }
          catch ptr null
  br label %lpad.body

lpad.body:                                        ; preds = %lpad.i, %lpad
  %eh.lpad-body = phi { ptr, i32 } [ %9, %lpad ], [ %6, %lpad.i ]
  %10 = extractvalue { ptr, i32 } %eh.lpad-body, 0
  %11 = tail call ptr @__cxa_begin_catch(ptr %10) #16
  invoke void @__cxa_end_catch()
          to label %return unwind label %terminate.lpad

return:                                           ; preds = %lpad.body, %invoke.cont
  %retval.0 = phi ptr [ %call, %invoke.cont ], [ @.str.21, %lpad.body ]
  ret ptr %retval.0

terminate.lpad:                                   ; preds = %lpad.body
  %12 = landingpad { ptr, i32 }
          catch ptr null
  %13 = extractvalue { ptr, i32 } %12, 0
  tail call void @__clang_call_terminate(ptr %13) #18
  unreachable
}